; Function Attrs: mustprogress nofree norecurse nosync nounwind willreturn memory(read, inaccessiblemem: none) uwtable
define range(i32 -1, 2147483647) i32 @Intb_ManGetGlobalVar(ptr noundef readonly captures(none) %0, i32 noundef %1) local_unnamed_addr #11 {
  %3 = getelementptr inbounds nuw i8, ptr %0, i64 96
  %4 = load ptr, ptr %3, align 8, !tbaa !25
  %5 = sext i32 %1 to i64
  %6 = getelementptr inbounds i32, ptr %4, i64 %5
  %7 = load i32, ptr %6, align 4, !tbaa !26
  %8 = tail call i32 @llvm.smin.i32(i32 %7, i32 0)
  %.0 = xor i32 %8, -1
  ret i32 %.0
}